; Function Attrs: mustprogress uwtable
define void @_ZN8facebook5velox4exec17ExprSetSimplified4evalEiibRKNS0_17SelectivityVectorERNS1_7EvalCtxERSt6vectorISt10shared_ptrINS0_10BaseVectorEESaISB_EE(ptr nocapture noundef nonnull readonly align 8 dereferenceable(200) %this, i32 noundef %begin, i32 noundef %end, i1 noundef zeroext %initialize, ptr noundef nonnull align 8 dereferenceable(38) %rows, ptr noundef nonnull align 8 dereferenceable(104) %context, ptr noundef nonnull align 8 dereferenceable(24) %result) unnamed_addr #3 align 2 {
entry:
  %exprs_ = getelementptr inbounds i8, ptr %this, i64 8
  %_M_finish.i = getelementptr inbounds i8, ptr %this, i64 16
  %0 = load ptr, ptr %_M_finish.i, align 8
  %1 = load ptr, ptr %exprs_, align 8
  %sub.ptr.lhs.cast.i = ptrtoint ptr %0 to i64
  %sub.ptr.rhs.cast.i = ptrtoint ptr %1 to i64
  %sub.ptr.sub.i = sub i64 %sub.ptr.lhs.cast.i, %sub.ptr.rhs.cast.i
  %sub.ptr.div.i = ashr exact i64 %sub.ptr.sub.i, 4
  tail call void @_ZNSt6vectorISt10shared_ptrIN8facebook5velox10BaseVectorEESaIS4_EE6resizeEm(ptr noundef nonnull align 8 dereferenceable(24) %result, i64 noundef %sub.ptr.div.i)
  br i1 %initialize, label %if.then, label %if.end

if.then:                                          ; preds = %entry
  %toReset_.i = getelementptr inbounds i8, ptr %this, i64 112
  %2 = load ptr, ptr %toReset_.i, align 8
  %_M_finish.i.i = getelementptr inbounds i8, ptr %this, i64 120
  %3 = load ptr, ptr %_M_finish.i.i, align 8
  %cmp.i.not4.i = icmp eq ptr %2, %3
  br i1 %cmp.i.not4.i, label %if.end, label %for.body.i

for.body.i:                                       ; preds = %if.then, %for.body.i
  %__begin2.sroa.0.05.i = phi ptr [ %incdec.ptr.i.i, %for.body.i ], [ %2, %if.then ]
  %4 = load ptr, ptr %__begin2.sroa.0.05.i, align 8
  %vtable.i = load ptr, ptr %4, align 8
  %vfn.i = getelementptr inbounds i8, ptr %vtable.i, i64 32
  %5 = load ptr, ptr %vfn.i, align 8
  tail call void %5(ptr noundef nonnull align 8 dereferenceable(442) %4)
  %incdec.ptr.i.i = getelementptr inbounds i8, ptr %__begin2.sroa.0.05.i, i64 16
  %cmp.i.not.i = icmp eq ptr %incdec.ptr.i.i, %3
  br i1 %cmp.i.not.i, label %if.end, label %for.body.i

if.end:                                           ; preds = %for.body.i, %if.then, %entry
  %cmp6 = icmp slt i32 %begin, %end
  br i1 %cmp6, label %for.body.preheader, label %for.end

for.body.preheader:                               ; preds = %if.end
  %6 = sext i32 %begin to i64
  br label %for.body

for.body:                                         ; preds = %for.body.preheader, %for.body
  %indvars.iv = phi i64 [ %6, %for.body.preheader ], [ %indvars.iv.next, %for.body ]
  %7 = load ptr, ptr %exprs_, align 8
  %add.ptr.i = getelementptr inbounds %"class.std::shared_ptr.44", ptr %7, i64 %indvars.iv
  %8 = load ptr, ptr %add.ptr.i, align 8
  %9 = load ptr, ptr %result, align 8
  %add.ptr.i5 = getelementptr inbounds %"class.std::shared_ptr.39", ptr %9, i64 %indvars.iv
  tail call void @_ZN8facebook5velox4exec4Expr14evalSimplifiedERKNS0_17SelectivityVectorERNS1_7EvalCtxERSt10shared_ptrINS0_10BaseVectorEE(ptr noundef nonnull align 8 dereferenceable(442) %8, ptr noundef nonnull align 8 dereferenceable(38) %rows, ptr noundef nonnull align 8 dereferenceable(104) %context, ptr noundef nonnull align 8 dereferenceable(16) %add.ptr.i5)
  %indvars.iv.next = add nsw i64 %indvars.iv, 1
  %lftr.wideiv = trunc i64 %indvars.iv.next to i32
  %exitcond.not = icmp eq i32 %lftr.wideiv, %end
  br i1 %exitcond.not, label %for.end, label %for.body, !llvm.loop !233

for.end:                                          ; preds = %for.body, %if.end
  ret void
}